; Function Attrs: mustprogress nofree norecurse nosync nounwind willreturn memory(readwrite, inaccessiblemem: none) uwtable
define void @_ZN5folly21ExecutorBlockingGuardC2ENS0_8TrackTagEPNS_8ExecutorENS_5RangeIPKcEE(ptr noundef nonnull align 8 dereferenceable(40) initializes((0, 40)) %0, ptr noundef %1, ptr %2, ptr %3) unnamed_addr #15 align 2 personality ptr @__gxx_personality_v0 {
  %5 = getelementptr inbounds nuw i8, ptr %0, i64 16
  tail call void @llvm.memset.p0.i64(ptr noundef nonnull align 8 dereferenceable(24) %5, i8 0, i64 24, i1 false)
  %6 = tail call align 8 ptr @llvm.threadlocal.address.p0(ptr align 8 @_ZN5folly22executor_blocking_listE)
  %7 = load ptr, ptr %6, align 8, !tbaa !26
  tail call void @llvm.memcpy.p0.p0.i64(ptr noundef nonnull align 8 dereferenceable(40) %0, ptr noundef nonnull align 8 dereferenceable(40) %7, i64 40, i1 false), !tbaa.struct !43
  store ptr %7, ptr %0, align 8, !tbaa !44
  %8 = getelementptr inbounds nuw i8, ptr %0, i64 8
  store i8 1, ptr %8, align 8, !tbaa !46
  store ptr %1, ptr %5, align 8, !tbaa !47
  %9 = icmp eq ptr %2, %3
  br i1 %9, label %12, label %10

10:                                               ; preds = %4
  %11 = getelementptr inbounds nuw i8, ptr %0, i64 24
  store ptr %2, ptr %11, align 8, !tbaa !40
  %.sroa.3.0..sroa_idx = getelementptr inbounds nuw i8, ptr %0, i64 32
  store ptr %3, ptr %.sroa.3.0..sroa_idx, align 8, !tbaa !40
  br label %12

12:                                               ; preds = %10, %4
  store ptr %0, ptr %6, align 8, !tbaa !26
  ret void
}